; Function Attrs: mustprogress uwtable
define internal void @_ZL31llama_sampler_mirostat_v2_resetP13llama_sampler(ptr noundef readonly captures(none) %0) #0 {
  %2 = getelementptr inbounds nuw i8, ptr %0, i64 8
  %3 = load ptr, ptr %2, align 8, !tbaa !9
  %4 = getelementptr inbounds nuw i8, ptr %3, i64 8
  %5 = load float, ptr %4, align 8, !tbaa !93
  %6 = fmul float %5, 2.000000e+00
  %7 = getelementptr inbounds nuw i8, ptr %3, i64 16
  store float %6, ptr %7, align 8, !tbaa !95
  %8 = load i32, ptr %3, align 8, !tbaa !90
  %9 = tail call fastcc noundef i32 @_ZL12get_rng_seedj(i32 noundef %8)
  %10 = getelementptr inbounds nuw i8, ptr %3, i64 4
  store i32 %9, ptr %10, align 4, !tbaa !92
  %11 = getelementptr inbounds nuw i8, ptr %3, i64 24
  %12 = zext i32 %9 to i64
  store i64 %12, ptr %11, align 8, !tbaa !46
  br label %13

13:                                               ; preds = %13, %1
  %14 = phi i64 [ %12, %1 ], [ %19, %13 ]
  %.011.i = phi i64 [ 1, %1 ], [ %21, %13 ]
  %15 = lshr i64 %14, 30
  %16 = xor i64 %15, %14
  %17 = mul nuw nsw i64 %16, 1812433253
  %18 = add nuw i64 %17, %.011.i
  %19 = and i64 %18, 4294967295
  %20 = getelementptr inbounds nuw [624 x i64], ptr %11, i64 0, i64 %.011.i
  store i64 %19, ptr %20, align 8, !tbaa !46
  %21 = add nuw nsw i64 %.011.i, 1
  %exitcond.not.i = icmp eq i64 %21, 624
  br i1 %exitcond.not.i, label %_ZNSt23mersenne_twister_engineImLm32ELm624ELm397ELm31ELm2567483615ELm11ELm4294967295ELm7ELm2636928640ELm15ELm4022730752ELm18ELm1812433253EE4seedEm.exit, label %13, !llvm.loop !47

_ZNSt23mersenne_twister_engineImLm32ELm624ELm397ELm31ELm2567483615ELm11ELm4294967295ELm7ELm2636928640ELm15ELm4022730752ELm18ELm1812433253EE4seedEm.exit: ; preds = %13
  %22 = getelementptr inbounds nuw i8, ptr %3, i64 5016
  store i64 624, ptr %22, align 8, !tbaa !48
  ret void
}